; Function Attrs: mustprogress nounwind uwtable
define hidden noundef zeroext i1 @_ZN14LibraryCallKit24inline_native_time_funcsEPhPKc(ptr noundef nonnull align 8 dereferenceable(108) %0, ptr noundef %1, ptr noundef %2) local_unnamed_addr #0 align 2 {
  %4 = tail call noundef ptr @_ZN11OptoRuntime14void_long_TypeEv() #13
  %5 = tail call noundef ptr @_ZN8GraphKit17make_runtime_callEiPK8TypeFuncPhPKcPK7TypePtrP4NodeSA_SA_SA_SA_SA_SA_SA_(ptr noundef nonnull align 8 dereferenceable(84) %0, i32 noundef 0, ptr noundef %4, ptr noundef %1, ptr noundef %2, ptr noundef null, ptr noundef null, ptr noundef null, ptr noundef null, ptr noundef null, ptr noundef null, ptr noundef null, ptr noundef null, ptr noundef null) #13
  %6 = getelementptr inbounds i8, ptr %0, i64 32
  %7 = load ptr, ptr %6, align 8
  %8 = tail call align 8 ptr @llvm.threadlocal.address.p0(ptr align 8 @_ZN6Thread12_thr_currentE)
  %9 = load ptr, ptr %8, align 8
  %10 = getelementptr inbounds i8, ptr %9, i64 1808
  %11 = load ptr, ptr %10, align 8
  %12 = getelementptr inbounds i8, ptr %11, i64 128
  %13 = load ptr, ptr %12, align 8
  %14 = getelementptr inbounds i8, ptr %13, i64 728
  %15 = load ptr, ptr %14, align 8
  %16 = getelementptr inbounds i8, ptr %15, i64 40
  %17 = load ptr, ptr %16, align 8
  %18 = getelementptr inbounds i8, ptr %15, i64 32
  %19 = load ptr, ptr %18, align 8
  %20 = ptrtoint ptr %17 to i64
  %21 = ptrtoint ptr %19 to i64
  %22 = sub i64 %20, %21
  %.not.i.i.i = icmp ult i64 %22, 64
  br i1 %.not.i.i.i, label %25, label %23

23:                                               ; preds = %3
  %24 = getelementptr inbounds i8, ptr %19, i64 64
  store ptr %24, ptr %18, align 8
  br label %_ZN4NodenwEm.exit

25:                                               ; preds = %3
  %26 = tail call noundef ptr @_ZN5Arena4growEmN17AllocFailStrategy13AllocFailEnumE(ptr noundef nonnull align 8 dereferenceable(48) %15, i64 noundef 64, i32 noundef 0) #13
  br label %_ZN4NodenwEm.exit

_ZN4NodenwEm.exit:                                ; preds = %23, %25
  %.0.i.i.i = phi ptr [ %19, %23 ], [ %26, %25 ]
  %27 = icmp eq ptr %.0.i.i.i, null
  br i1 %27, label %35, label %28

28:                                               ; preds = %_ZN4NodenwEm.exit
  tail call void @_ZN4NodeC2EPS_(ptr noundef nonnull align 8 dereferenceable(52) %.0.i.i.i, ptr noundef %5) #13
  store ptr getelementptr inbounds inrange(-16, 192) (i8, ptr @_ZTV8ProjNode, i64 16), ptr %.0.i.i.i, align 8
  %29 = getelementptr inbounds i8, ptr %.0.i.i.i, i64 52
  store i32 5, ptr %29, align 4
  %30 = getelementptr inbounds i8, ptr %.0.i.i.i, i64 56
  store i8 0, ptr %30, align 8
  %31 = getelementptr inbounds i8, ptr %.0.i.i.i, i64 44
  store i32 8, ptr %31, align 4
  %32 = getelementptr inbounds i8, ptr %.0.i.i.i, i64 48
  %33 = load i32, ptr %32, align 8
  %34 = or i32 %33, 64
  store i32 %34, ptr %32, align 8
  br label %35

35:                                               ; preds = %28, %_ZN4NodenwEm.exit
  %36 = load ptr, ptr %7, align 8
  %37 = load ptr, ptr %36, align 8
  %38 = tail call noundef ptr %37(ptr noundef nonnull align 8 dereferenceable(2400) %7, ptr noundef %.0.i.i.i) #13
  %39 = getelementptr inbounds i8, ptr %0, i64 96
  store ptr %38, ptr %39, align 8
  ret i1 true
}